target datalayout = "e-m:e-p270:32:32-p271:32:32-p272:64:64-i64:64-i128:128-f80:128-n8:16:32:64-S128"
target triple = "x86_64-pc-linux-gnu"

%struct.OSQPSolver = type { ptr, ptr, ptr, ptr }
%struct.OSQPWorkspace_ = type { ptr, ptr, ptr, ptr, ptr, ptr, ptr, ptr, ptr, ptr, ptr, ptr, ptr, ptr, ptr, ptr, ptr, ptr, ptr, ptr, ptr, ptr, ptr, ptr, ptr, ptr, double, double, double, ptr, i64, i64, i64, i64, ptr }
%struct.OSQPData = type { i64, i64, ptr, ptr, ptr, ptr, ptr }
%struct.OSQPSettings = type { i64, i32, i64, i64, i64, i64, i64, i64, double, i64, double, double, i64, i64, double, i32, i64, i64, double, double, i64, double, double, double, double, i64, i64, double, double, i64 }
%struct.OSQPScaling = type { double, ptr, ptr, double, ptr, ptr }

; Function Attrs: nounwind uwtable
define i64 @is_dual_infeasible(ptr noundef %0, double noundef %1) #0 {
  %3 = alloca i64, align 8
  %4 = alloca ptr, align 8
  %5 = alloca double, align 8
  %6 = alloca double, align 8
  %7 = alloca double, align 8
  %8 = alloca ptr, align 8
  %9 = alloca ptr, align 8
  store ptr %0, ptr %4, align 8
  store double %1, ptr %5, align 8
  %10 = load ptr, ptr %4, align 8
  %11 = getelementptr inbounds %struct.OSQPSolver, ptr %10, i32 0, i32 0
  %12 = load ptr, ptr %11, align 8
  store ptr %12, ptr %8, align 8
  %13 = load ptr, ptr %4, align 8
  %14 = getelementptr inbounds %struct.OSQPSolver, ptr %13, i32 0, i32 3
  %15 = load ptr, ptr %14, align 8
  store ptr %15, ptr %9, align 8
  %16 = load ptr, ptr %8, align 8
  %17 = getelementptr inbounds %struct.OSQPSettings, ptr %16, i32 0, i32 6
  %18 = load i64, ptr %17, align 8
  %19 = icmp ne i64 %18, 0
  br i1 %19, label %20, label %40

20:                                               ; preds = %2
  %21 = load ptr, ptr %8, align 8
  %22 = getelementptr inbounds %struct.OSQPSettings, ptr %21, i32 0, i32 25
  %23 = load i64, ptr %22, align 8
  %24 = icmp ne i64 %23, 0
  br i1 %24, label %40, label %25

25:                                               ; preds = %20
  %26 = load ptr, ptr %9, align 8
  %27 = getelementptr inbounds %struct.OSQPWorkspace_, ptr %26, i32 0, i32 25
  %28 = load ptr, ptr %27, align 8
  %29 = getelementptr inbounds %struct.OSQPScaling, ptr %28, i32 0, i32 1
  %30 = load ptr, ptr %29, align 8
  %31 = load ptr, ptr %9, align 8
  %32 = getelementptr inbounds %struct.OSQPWorkspace_, ptr %31, i32 0, i32 19
  %33 = load ptr, ptr %32, align 8
  %34 = call double @OSQPVectorf_scaled_norm_inf(ptr noundef %30, ptr noundef %33)
  store double %34, ptr %6, align 8
  %35 = load ptr, ptr %9, align 8
  %36 = getelementptr inbounds %struct.OSQPWorkspace_, ptr %35, i32 0, i32 25
  %37 = load ptr, ptr %36, align 8
  %38 = getelementptr inbounds %struct.OSQPScaling, ptr %37, i32 0, i32 0
  %39 = load double, ptr %38, align 8
  store double %39, ptr %7, align 8
  br label %45

40:                                               ; preds = %20, %2
  %41 = load ptr, ptr %9, align 8
  %42 = getelementptr inbounds %struct.OSQPWorkspace_, ptr %41, i32 0, i32 19
  %43 = load ptr, ptr %42, align 8
  %44 = call double @OSQPVectorf_norm_inf(ptr noundef %43)
  store double %44, ptr %6, align 8
  store double 1.000000e+00, ptr %7, align 8
  br label %45

45:                                               ; preds = %40, %25
  %46 = load double, ptr %6, align 8
  %47 = fcmp ogt double %46, 0x39B4484BFEEBC29F
  br i1 %47, label %48, label %156

48:                                               ; preds = %45
  %49 = load ptr, ptr %9, align 8
  %50 = getelementptr inbounds %struct.OSQPWorkspace_, ptr %49, i32 0, i32 0
  %51 = load ptr, ptr %50, align 8
  %52 = getelementptr inbounds %struct.OSQPData, ptr %51, i32 0, i32 4
  %53 = load ptr, ptr %52, align 8
  %54 = load ptr, ptr %9, align 8
  %55 = getelementptr inbounds %struct.OSQPWorkspace_, ptr %54, i32 0, i32 19
  %56 = load ptr, ptr %55, align 8
  %57 = call double @OSQPVectorf_dot_prod(ptr noundef %53, ptr noundef %56)
  %58 = fcmp olt double %57, 0.000000e+00
  br i1 %58, label %59, label %155

59:                                               ; preds = %48
  %60 = load ptr, ptr %9, align 8
  %61 = getelementptr inbounds %struct.OSQPWorkspace_, ptr %60, i32 0, i32 0
  %62 = load ptr, ptr %61, align 8
  %63 = getelementptr inbounds %struct.OSQPData, ptr %62, i32 0, i32 2
  %64 = load ptr, ptr %63, align 8
  %65 = load ptr, ptr %9, align 8
  %66 = getelementptr inbounds %struct.OSQPWorkspace_, ptr %65, i32 0, i32 19
  %67 = load ptr, ptr %66, align 8
  %68 = load ptr, ptr %9, align 8
  %69 = getelementptr inbounds %struct.OSQPWorkspace_, ptr %68, i32 0, i32 20
  %70 = load ptr, ptr %69, align 8
  call void @OSQPMatrix_Axpy(ptr noundef %64, ptr noundef %67, ptr noundef %70, double noundef 1.000000e+00, double noundef 0.000000e+00)
  %71 = load ptr, ptr %8, align 8
  %72 = getelementptr inbounds %struct.OSQPSettings, ptr %71, i32 0, i32 6
  %73 = load i64, ptr %72, align 8
  %74 = icmp ne i64 %73, 0
  br i1 %74, label %75, label %92

75:                                               ; preds = %59
  %76 = load ptr, ptr %8, align 8
  %77 = getelementptr inbounds %struct.OSQPSettings, ptr %76, i32 0, i32 25
  %78 = load i64, ptr %77, align 8
  %79 = icmp ne i64 %78, 0
  br i1 %79, label %92, label %80

80:                                               ; preds = %75
  %81 = load ptr, ptr %9, align 8
  %82 = getelementptr inbounds %struct.OSQPWorkspace_, ptr %81, i32 0, i32 20
  %83 = load ptr, ptr %82, align 8
  %84 = load ptr, ptr %9, align 8
  %85 = getelementptr inbounds %struct.OSQPWorkspace_, ptr %84, i32 0, i32 20
  %86 = load ptr, ptr %85, align 8
  %87 = load ptr, ptr %9, align 8
  %88 = getelementptr inbounds %struct.OSQPWorkspace_, ptr %87, i32 0, i32 25
  %89 = load ptr, ptr %88, align 8
  %90 = getelementptr inbounds %struct.OSQPScaling, ptr %89, i32 0, i32 4
  %91 = load ptr, ptr %90, align 8
  call void @OSQPVectorf_ew_prod(ptr noundef %83, ptr noundef %86, ptr noundef %91)
  br label %92

92:                                               ; preds = %80, %75, %59
  %93 = load ptr, ptr %9, align 8
  %94 = getelementptr inbounds %struct.OSQPWorkspace_, ptr %93, i32 0, i32 20
  %95 = load ptr, ptr %94, align 8
  %96 = call double @OSQPVectorf_norm_inf(ptr noundef %95)
  %97 = load double, ptr %7, align 8
  %98 = load double, ptr %5, align 8
  %99 = fmul double %97, %98
  %100 = load double, ptr %6, align 8
  %101 = fmul double %99, %100
  %102 = fcmp olt double %96, %101
  br i1 %102, label %103, label %154

103:                                              ; preds = %92
  %104 = load ptr, ptr %9, align 8
  %105 = getelementptr inbounds %struct.OSQPWorkspace_, ptr %104, i32 0, i32 0
  %106 = load ptr, ptr %105, align 8
  %107 = getelementptr inbounds %struct.OSQPData, ptr %106, i32 0, i32 3
  %108 = load ptr, ptr %107, align 8
  %109 = load ptr, ptr %9, align 8
  %110 = getelementptr inbounds %struct.OSQPWorkspace_, ptr %109, i32 0, i32 19
  %111 = load ptr, ptr %110, align 8
  %112 = load ptr, ptr %9, align 8
  %113 = getelementptr inbounds %struct.OSQPWorkspace_, ptr %112, i32 0, i32 21
  %114 = load ptr, ptr %113, align 8
  call void @OSQPMatrix_Axpy(ptr noundef %108, ptr noundef %111, ptr noundef %114, double noundef 1.000000e+00, double noundef 0.000000e+00)
  %115 = load ptr, ptr %8, align 8
  %116 = getelementptr inbounds %struct.OSQPSettings, ptr %115, i32 0, i32 6
  %117 = load i64, ptr %116, align 8
  %118 = icmp ne i64 %117, 0
  br i1 %118, label %119, label %136

119:                                              ; preds = %103
  %120 = load ptr, ptr %8, align 8
  %121 = getelementptr inbounds %struct.OSQPSettings, ptr %120, i32 0, i32 25
  %122 = load i64, ptr %121, align 8
  %123 = icmp ne i64 %122, 0
  br i1 %123, label %136, label %124

124:                                              ; preds = %119
  %125 = load ptr, ptr %9, align 8
  %126 = getelementptr inbounds %struct.OSQPWorkspace_, ptr %125, i32 0, i32 21
  %127 = load ptr, ptr %126, align 8
  %128 = load ptr, ptr %9, align 8
  %129 = getelementptr inbounds %struct.OSQPWorkspace_, ptr %128, i32 0, i32 21
  %130 = load ptr, ptr %129, align 8
  %131 = load ptr, ptr %9, align 8
  %132 = getelementptr inbounds %struct.OSQPWorkspace_, ptr %131, i32 0, i32 25
  %133 = load ptr, ptr %132, align 8
  %134 = getelementptr inbounds %struct.OSQPScaling, ptr %133, i32 0, i32 5
  %135 = load ptr, ptr %134, align 8
  call void @OSQPVectorf_ew_prod(ptr noundef %127, ptr noundef %130, ptr noundef %135)
  br label %136

136:                                              ; preds = %124, %119, %103
  %137 = load ptr, ptr %9, align 8
  %138 = getelementptr inbounds %struct.OSQPWorkspace_, ptr %137, i32 0, i32 21
  %139 = load ptr, ptr %138, align 8
  %140 = load ptr, ptr %9, align 8
  %141 = getelementptr inbounds %struct.OSQPWorkspace_, ptr %140, i32 0, i32 0
  %142 = load ptr, ptr %141, align 8
  %143 = getelementptr inbounds %struct.OSQPData, ptr %142, i32 0, i32 5
  %144 = load ptr, ptr %143, align 8
  %145 = load ptr, ptr %9, align 8
  %146 = getelementptr inbounds %struct.OSQPWorkspace_, ptr %145, i32 0, i32 0
  %147 = load ptr, ptr %146, align 8
  %148 = getelementptr inbounds %struct.OSQPData, ptr %147, i32 0, i32 6
  %149 = load ptr, ptr %148, align 8
  %150 = load double, ptr %5, align 8
  %151 = load double, ptr %6, align 8
  %152 = fmul double %150, %151
  %153 = call i64 @OSQPVectorf_in_reccone(ptr noundef %139, ptr noundef %144, ptr noundef %149, double noundef 1.000000e+26, double noundef %152)
  store i64 %153, ptr %3, align 8
  br label %157

154:                                              ; preds = %92
  br label %155

155:                                              ; preds = %154, %48
  br label %156

156:                                              ; preds = %155, %45
  store i64 0, ptr %3, align 8
  br label %157

157:                                              ; preds = %156, %136
  %158 = load i64, ptr %3, align 8
  ret i64 %158
}