; Function Attrs: nounwind uwtable
define i64 @is_dual_infeasible(ptr noundef readonly captures(none) %0, double noundef %1) local_unnamed_addr #0 {
  %3 = load ptr, ptr %0, align 8
  %4 = getelementptr inbounds nuw i8, ptr %0, i64 24
  %5 = load ptr, ptr %4, align 8
  %6 = getelementptr inbounds nuw i8, ptr %3, i64 48
  %7 = load i64, ptr %6, align 8
  %.not = icmp eq i64 %7, 0
  br i1 %.not, label %21, label %8

8:                                                ; preds = %2
  %9 = getelementptr inbounds nuw i8, ptr %3, i64 200
  %10 = load i64, ptr %9, align 8
  %.not38 = icmp eq i64 %10, 0
  br i1 %.not38, label %11, label %21

11:                                               ; preds = %8
  %12 = getelementptr inbounds nuw i8, ptr %5, i64 200
  %13 = load ptr, ptr %12, align 8
  %14 = getelementptr inbounds nuw i8, ptr %13, i64 8
  %15 = load ptr, ptr %14, align 8
  %16 = getelementptr inbounds nuw i8, ptr %5, i64 152
  %17 = load ptr, ptr %16, align 8
  %18 = tail call double @OSQPVectorf_scaled_norm_inf(ptr noundef %15, ptr noundef %17) #9
  %19 = load ptr, ptr %12, align 8
  %20 = load double, ptr %19, align 8
  br label %25

21:                                               ; preds = %8, %2
  %22 = getelementptr inbounds nuw i8, ptr %5, i64 152
  %23 = load ptr, ptr %22, align 8
  %24 = tail call double @OSQPVectorf_norm_inf(ptr noundef %23) #9
  br label %25

25:                                               ; preds = %21, %11
  %.037 = phi double [ 1.000000e+00, %21 ], [ %20, %11 ]
  %.036 = phi double [ %24, %21 ], [ %18, %11 ]
  %26 = fcmp ogt double %.036, 0x39B4484BFEEBC29F
  br i1 %26, label %27, label %84

27:                                               ; preds = %25
  %28 = load ptr, ptr %5, align 8
  %29 = getelementptr inbounds nuw i8, ptr %28, i64 32
  %30 = load ptr, ptr %29, align 8
  %31 = getelementptr inbounds nuw i8, ptr %5, i64 152
  %32 = load ptr, ptr %31, align 8
  %33 = tail call double @OSQPVectorf_dot_prod(ptr noundef %30, ptr noundef %32) #9
  %34 = fcmp olt double %33, 0.000000e+00
  br i1 %34, label %35, label %84

35:                                               ; preds = %27
  %36 = load ptr, ptr %5, align 8
  %37 = getelementptr inbounds nuw i8, ptr %36, i64 16
  %38 = load ptr, ptr %37, align 8
  %39 = load ptr, ptr %31, align 8
  %40 = getelementptr inbounds nuw i8, ptr %5, i64 160
  %41 = load ptr, ptr %40, align 8
  tail call void @OSQPMatrix_Axpy(ptr noundef %38, ptr noundef %39, ptr noundef %41, double noundef 1.000000e+00, double noundef 0.000000e+00) #9
  %42 = load i64, ptr %6, align 8
  %.not39 = icmp eq i64 %42, 0
  br i1 %.not39, label %52, label %43

43:                                               ; preds = %35
  %44 = getelementptr inbounds nuw i8, ptr %3, i64 200
  %45 = load i64, ptr %44, align 8
  %.not40 = icmp eq i64 %45, 0
  br i1 %.not40, label %46, label %52

46:                                               ; preds = %43
  %47 = load ptr, ptr %40, align 8
  %48 = getelementptr inbounds nuw i8, ptr %5, i64 200
  %49 = load ptr, ptr %48, align 8
  %50 = getelementptr inbounds nuw i8, ptr %49, i64 32
  %51 = load ptr, ptr %50, align 8
  tail call void @OSQPVectorf_ew_prod(ptr noundef %47, ptr noundef %47, ptr noundef %51) #9
  br label %52

52:                                               ; preds = %46, %43, %35
  %53 = load ptr, ptr %40, align 8
  %54 = tail call double @OSQPVectorf_norm_inf(ptr noundef %53) #9
  %55 = fmul double %1, %.037
  %56 = fmul double %55, %.036
  %57 = fcmp olt double %54, %56
  br i1 %57, label %58, label %84

58:                                               ; preds = %52
  %59 = load ptr, ptr %5, align 8
  %60 = getelementptr inbounds nuw i8, ptr %59, i64 24
  %61 = load ptr, ptr %60, align 8
  %62 = load ptr, ptr %31, align 8
  %63 = getelementptr inbounds nuw i8, ptr %5, i64 168
  %64 = load ptr, ptr %63, align 8
  tail call void @OSQPMatrix_Axpy(ptr noundef %61, ptr noundef %62, ptr noundef %64, double noundef 1.000000e+00, double noundef 0.000000e+00) #9
  %65 = load i64, ptr %6, align 8
  %.not41 = icmp eq i64 %65, 0
  br i1 %.not41, label %75, label %66

66:                                               ; preds = %58
  %67 = getelementptr inbounds nuw i8, ptr %3, i64 200
  %68 = load i64, ptr %67, align 8
  %.not42 = icmp eq i64 %68, 0
  br i1 %.not42, label %69, label %75

69:                                               ; preds = %66
  %70 = load ptr, ptr %63, align 8
  %71 = getelementptr inbounds nuw i8, ptr %5, i64 200
  %72 = load ptr, ptr %71, align 8
  %73 = getelementptr inbounds nuw i8, ptr %72, i64 40
  %74 = load ptr, ptr %73, align 8
  tail call void @OSQPVectorf_ew_prod(ptr noundef %70, ptr noundef %70, ptr noundef %74) #9
  br label %75

75:                                               ; preds = %69, %66, %58
  %76 = load ptr, ptr %63, align 8
  %77 = load ptr, ptr %5, align 8
  %78 = getelementptr inbounds nuw i8, ptr %77, i64 40
  %79 = load ptr, ptr %78, align 8
  %80 = getelementptr inbounds nuw i8, ptr %77, i64 48
  %81 = load ptr, ptr %80, align 8
  %82 = fmul double %1, %.036
  %83 = tail call i64 @OSQPVectorf_in_reccone(ptr noundef %76, ptr noundef %79, ptr noundef %81, double noundef 1.000000e+26, double noundef %82) #9
  br label %84

84:                                               ; preds = %25, %52, %27, %75
  %.0 = phi i64 [ %83, %75 ], [ 0, %27 ], [ 0, %52 ], [ 0, %25 ]
  ret i64 %.0
}